; Function Attrs: nounwind uwtable
define range(i32 -48, 1) i32 @ARKodeSetLinearSolutionScaling(ptr noundef %0, i32 noundef %1) local_unnamed_addr #0 {
  %3 = icmp eq ptr %0, null
  br i1 %3, label %4, label %5

4:                                                ; preds = %2
  tail call void (ptr, i32, i32, ptr, ptr, ptr, ...) @arkProcessError(ptr noundef null, i32 noundef -21, i32 noundef 790, ptr noundef nonnull @__func__.ARKodeSetLinearSolutionScaling, ptr noundef nonnull @.str, ptr noundef nonnull @.str.1) #13
  br label %19

5:                                                ; preds = %2
  %6 = getelementptr inbounds nuw i8, ptr %0, i64 296
  %7 = load i32, ptr %6, align 8, !tbaa !3
  %.not = icmp eq i32 %7, 0
  br i1 %.not, label %8, label %9

8:                                                ; preds = %5
  tail call void (ptr, i32, i32, ptr, ptr, ptr, ...) @arkProcessError(ptr noundef nonnull %0, i32 noundef -48, i32 noundef 799, ptr noundef nonnull @__func__.ARKodeSetLinearSolutionScaling, ptr noundef nonnull @.str, ptr noundef nonnull @.str.2) #13
  br label %19

9:                                                ; preds = %5
  %10 = getelementptr inbounds nuw i8, ptr %0, i64 320
  %11 = load ptr, ptr %10, align 8, !tbaa !33
  %12 = tail call ptr %11(ptr noundef nonnull %0) #13
  %13 = icmp eq ptr %12, null
  br i1 %13, label %arkLs_AccessLMem.exit, label %14

arkLs_AccessLMem.exit:                            ; preds = %9
  tail call void (ptr, i32, i32, ptr, ptr, ptr, ...) @arkProcessError(ptr noundef nonnull %0, i32 noundef -2, i32 noundef 4072, ptr noundef nonnull @__func__.ARKodeSetLinearSolutionScaling, ptr noundef nonnull @.str, ptr noundef nonnull @.str.64) #13
  br label %19

14:                                               ; preds = %9
  %15 = getelementptr inbounds nuw i8, ptr %12, i64 4
  %16 = load i32, ptr %15, align 4, !tbaa !41
  %.not11 = icmp eq i32 %16, 0
  br i1 %.not11, label %19, label %17

17:                                               ; preds = %14
  %18 = getelementptr inbounds nuw i8, ptr %12, i64 36
  store i32 %1, ptr %18, align 4, !tbaa !65
  br label %19

19:                                               ; preds = %arkLs_AccessLMem.exit, %14, %17, %8, %4
  %.0 = phi i32 [ -21, %4 ], [ 0, %17 ], [ -48, %8 ], [ -2, %arkLs_AccessLMem.exit ], [ -3, %14 ]
  ret i32 %.0
}